; Function Attrs: mustprogress nofree norecurse nosync nounwind willreturn memory(argmem: readwrite) uwtable
define noundef nonnull align 8 dereferenceable(400) ptr @_ZN6icu_7515AlphabeticIndex19resetBucketIteratorER10UErrorCode(ptr noundef nonnull returned writeonly align 8 dereferenceable(400) %this, ptr nocapture noundef nonnull readonly align 4 dereferenceable(4) %status) unnamed_addr #10 align 2 {
entry:
  %0 = load i32, ptr %status, align 4
  %cmp.i = icmp slt i32 %0, 1
  br i1 %cmp.i, label %if.end, label %return

if.end:                                           ; preds = %entry
  %labelsIterIndex_.i = getelementptr inbounds i8, ptr %this, i64 16
  store i32 -1, ptr %labelsIterIndex_.i, align 8
  %currentBucket_.i = getelementptr inbounds i8, ptr %this, i64 24
  store ptr null, ptr %currentBucket_.i, align 8
  br label %return

return:                                           ; preds = %entry, %if.end
  ret ptr %this
}